Certificate:
    Data:
        Version: 3 (0x2)
        Serial Number: 4096 (0x1000)
    Signature Algorithm: sha256WithRSAEncryption
        Issuer: C=CN, ST=Shandong, L=Jinan, O=individual, CN=Ziwei Li/emailAddress=alssylk@gmail.com
        Validity
            Not Before: May 13 08:46:29 2023 GMT
            Not After : May 12 08:46:29 2024 GMT
        Subject: C=CN, ST=Shandong, L=Jinan, O=individual, CN=Ziwei Li/emailAddress=alssylk@gmail.com
        Subject Public Key Info:
            Public Key Algorithm: rsaEncryption
                RSA Public-Key: (1024 bit)
                Modulus:
                    00:c7:90:c4:89:06:cd:9f:bf:ac:f0:96:0c:ad:ea:
                    4d:d9:cd:f4:2b:2d:0e:61:ac:dd:14:a6:ff:98:0f:
                    d1:44:34:f3:e5:93:81:a7:1a:80:2b:ac:d8:87:45:
                    cc:96:90:aa:ee:c7:e2:61:a3:8f:0a:ec:8c:8d:a5:
                    87:e6:a1:88:e7:a5:7d:cf:66:ea:f9:8c:e2:8a:46:
                    f9:59:1b:c5:27:04:fe:d7:5e:27:44:f5:47:e0:6d:
                    2f:fb:63:34:e3:6c:c7:33:b8:fa:48:2d:40:db:27:
                    9f:d2:8b:ca:52:a2:1c:6d:ca:71:86:ca:c9:a8:fb:
                    62:e5:40:07:c0:5f:86:db:75
                Exponent: 65537 (0x10001)
        X509v3 extensions:
            X509v3 Basic Constraints: 
                CA:FALSE
            X509v3 Subject Key Identifier: 
                B6:30:74:3E:BA:80:11:D0:1F:CE:30:95:F5:38:1D:EA:80:45:F1:40
            X509v3 Authority Key Identifier: 
                keyid:41:E5:D6:27:8E:75:DC:12:AB:6C:93:0D:A6:E2:52:3F:D1:DC:BD:D3

    Signature Algorithm: sha256WithRSAEncryption
         3a:8a:0c:e4:da:b9:12:71:d8:01:0b:ba:08:e5:16:85:66:b6:
         8b:d8:8e:98:b8:7a:45:ab:03:05:5b:1f:b7:e8:65:65:5b:bb:
         9a:78:0d:69:61:ab:df:57:c2:2f:5c:69:c9:d6:f9:e9:48:d6:
         92:f2:54:cb:06:52:6b:20:34:85:4b:f9:84:2c:8f:90:40:ff:
         d6:90:6a:36:05:9c:60:a5:72:ba:5f:91:0f:a2:58:c8:1d:15:
         6e:1f:97:02:84:c3:f3:ab:a7:c7:78:70:fb:9e:c1:c3:ac:dd:
         b4:7c:e7:87:e9:46:cd:3c:7a:ab:d5:43:6f:3e:a0:24:df:d5:
         7e:88:fa:71:4c:bc:65:4c:13:e3:04:8f:60:61:cb:e9:75:d7:
         db:2d:0b:90:c5:59:df:2f:e5:b4:df:02:08:c6:f9:df:37:db:
         fc:0c:9b:7b:eb:c6:27:7c:db:25:fa:4e:c9:97:95:c2:28:18:
         de:6a:4e:40:28:1a:22:76:b7:a3:47:05:24:83:15:7f:d5:ff:
         f4:f6:28:86:a9:3c:53:3f:50:61:99:14:ef:3c:6a:15:b3:81:
         9a:9d:5c:a4:59:df:b9:be:1c:eb:82:f1:69:26:ac:fb:4a:4e:
         1c:fb:5d:0e:7f:e9:cd:92:e4:72:a8:7a:87:94:84:ba:c1:90:
         f1:1d:d6:55
-----BEGIN CERTIFICATE-----
MIIDOTCCAiGgAwIBAgICEAAwDQYJKoZIhvcNAQELBQAwejELMAkGA1UEBhMCQ04x
ETAPBgNVBAgMCFNoYW5kb25nMQ4wDAYDVQQHDAVKaW5hbjETMBEGA1UECgwKaW5k
aXZpZHVhbDERMA8GA1UEAwwIWml3ZWkgTGkxIDAeBgkqhkiG9w0BCQEWEWFsc3N5
bGtAZ21haWwuY29tMB4XDTIzMDUxMzA4NDYyOVoXDTI0MDUxMjA4NDYyOVowejEL
MAkGA1UEBhMCQ04xETAPBgNVBAgMCFNoYW5kb25nMQ4wDAYDVQQHDAVKaW5hbjET
MBEGA1UECgwKaW5kaXZpZHVhbDERMA8GA1UEAwwIWml3ZWkgTGkxIDAeBgkqhkiG
9w0BCQEWEWFsc3N5bGtAZ21haWwuY29tMIGfMA0GCSqGSIb3DQEBAQUAA4GNADCB
iQKBgQDHkMSJBs2fv6zwlgyt6k3ZzfQrLQ5hrN0Upv+YD9FENPPlk4GnGoArrNiH
RcyWkKrux+Jho48K7IyNpYfmoYjnpX3PZur5jOKKRvlZG8UnBP7XXidE9UfgbS/7
YzTjbMczuPpILUDbJ5/Si8pSohxtynGGysmo+2LlQAfAX4bbdQIDAQABo00wSzAJ
BgNVHRMEAjAAMB0GA1UdDgQWBBS2MHQ+uoAR0B/OMJX1OB3qgEXxQDAfBgNVHSME
GDAWgBRB5dYnjnXcEqtskw2m4lI/0dy90zANBgkqhkiG9w0BAQsFAAOCAQEAOooM
5Nq5EnHYAQu6COUWhWa2i9iOmLh6RasDBVsft+hlZVu7mngNaWGr31fCL1xpydb5
6UjWkvJUywZSayA0hUv5hCyPkED/1pBqNgWcYKVyul+RD6JYyB0Vbh+XAoTD86un
x3hw+57Bw6zdtHznh+lGzTx6q9VDbz6gJN/Vfoj6cUy8ZUwT4wSPYGHL6XXX2y0L
kMVZ3y/ltN8CCMb53zfb/Aybe+vGJ3zbJfpOyZeVwigY3mpOQCgaIna3o0cFJIMV
f9X/9PYohqk8Uz9QYZkU7zxqFbOBmp1cpFnfub4c64LxaSas+0pOHPtdDn/pzZLk
cqh6h5SEusGQ8R3WVQ==
-----END CERTIFICATE-----
